; ModuleID = '60/905.c'
source_filename = "60/905.c"
target datalayout = "e-m:e-p270:32:32-p271:32:32-p272:64:64-i64:64-f80:128-n8:16:32:64-S128"
target triple = "x86_64-pc-linux-gnu"

@.str = private unnamed_addr constant [3 x i8] c"%d\00", align 1
@.str.1 = private unnamed_addr constant [7 x i8] c"%d %d\0A\00", align 1
@.str.2 = private unnamed_addr constant [6 x i8] c"empty\00", align 1

; Function Attrs: noinline nounwind uwtable
define dso_local i32 @main() #0 {
  %1 = alloca i32, align 4
  %2 = alloca i32, align 4
  %3 = alloca i32, align 4
  %4 = alloca i32, align 4
  %5 = alloca i32, align 4
  %6 = alloca i32, align 4
  %7 = alloca i32*, align 8
  store i32 0, i32* %1, align 4
  store i32 0, i32* %6, align 4
  %8 = call i32 (i8*, ...) @__isoc99_scanf(i8* getelementptr inbounds ([3 x i8], [3 x i8]* @.str, i64 0, i64 0), i32* %2)
  %9 = load i32, i32* %2, align 4
  %10 = sext i32 %9 to i64
  %11 = mul i64 4, %10
  %12 = call noalias i8* @malloc(i64 %11) #3
  %13 = bitcast i8* %12 to i32*
  store i32* %13, i32** %7, align 8
  store i32 2, i32* %4, align 4
  br label %14

14:                                               ; preds = %46, %0
  %15 = load i32, i32* %4, align 4
  %16 = load i32, i32* %2, align 4
  %17 = icmp sle i32 %15, %16
  br i1 %17, label %18, label %49

18:                                               ; preds = %14
  store i32 2, i32* %5, align 4
  br label %19

19:                                               ; preds = %30, %18
  %20 = load i32, i32* %5, align 4
  %21 = load i32, i32* %4, align 4
  %22 = icmp slt i32 %20, %21
  br i1 %22, label %23, label %33

23:                                               ; preds = %19
  %24 = load i32, i32* %4, align 4
  %25 = load i32, i32* %5, align 4
  %26 = srem i32 %24, %25
  %27 = icmp eq i32 %26, 0
  br i1 %27, label %28, label %29

28:                                               ; preds = %23
  br label %33

29:                                               ; preds = %23
  br label %30

30:                                               ; preds = %29
  %31 = load i32, i32* %5, align 4
  %32 = add nsw i32 %31, 1
  store i32 %32, i32* %5, align 4
  br label %19

33:                                               ; preds = %28, %19
  %34 = load i32, i32* %5, align 4
  %35 = load i32, i32* %4, align 4
  %36 = icmp eq i32 %34, %35
  br i1 %36, label %37, label %45

37:                                               ; preds = %33
  %38 = load i32, i32* %4, align 4
  %39 = load i32*, i32** %7, align 8
  %40 = load i32, i32* %6, align 4
  %41 = sext i32 %40 to i64
  %42 = getelementptr inbounds i32, i32* %39, i64 %41
  store i32 %38, i32* %42, align 4
  %43 = load i32, i32* %6, align 4
  %44 = add nsw i32 %43, 1
  store i32 %44, i32* %6, align 4
  br label %45

45:                                               ; preds = %37, %33
  br label %46

46:                                               ; preds = %45
  %47 = load i32, i32* %4, align 4
  %48 = add nsw i32 %47, 1
  store i32 %48, i32* %4, align 4
  br label %14

49:                                               ; preds = %14
  store i32 0, i32* %4, align 4
  br label %50

50:                                               ; preds = %82, %49
  %51 = load i32, i32* %4, align 4
  %52 = load i32, i32* %6, align 4
  %53 = icmp sle i32 %51, %52
  br i1 %53, label %54, label %85

54:                                               ; preds = %50
  %55 = load i32*, i32** %7, align 8
  %56 = load i32, i32* %4, align 4
  %57 = add nsw i32 %56, 1
  %58 = sext i32 %57 to i64
  %59 = getelementptr inbounds i32, i32* %55, i64 %58
  %60 = load i32, i32* %59, align 4
  %61 = load i32*, i32** %7, align 8
  %62 = load i32, i32* %4, align 4
  %63 = sext i32 %62 to i64
  %64 = getelementptr inbounds i32, i32* %61, i64 %63
  %65 = load i32, i32* %64, align 4
  %66 = sub nsw i32 %60, %65
  %67 = icmp eq i32 %66, 2
  br i1 %67, label %68, label %81

68:                                               ; preds = %54
  %69 = load i32*, i32** %7, align 8
  %70 = load i32, i32* %4, align 4
  %71 = sext i32 %70 to i64
  %72 = getelementptr inbounds i32, i32* %69, i64 %71
  %73 = load i32, i32* %72, align 4
  %74 = load i32*, i32** %7, align 8
  %75 = load i32, i32* %4, align 4
  %76 = add nsw i32 %75, 1
  %77 = sext i32 %76 to i64
  %78 = getelementptr inbounds i32, i32* %74, i64 %77
  %79 = load i32, i32* %78, align 4
  %80 = call i32 (i8*, ...) @printf(i8* getelementptr inbounds ([7 x i8], [7 x i8]* @.str.1, i64 0, i64 0), i32 %73, i32 %79)
  store i32 1, i32* %3, align 4
  br label %81

81:                                               ; preds = %68, %54
  br label %82

82:                                               ; preds = %81
  %83 = load i32, i32* %4, align 4
  %84 = add nsw i32 %83, 1
  store i32 %84, i32* %4, align 4
  br label %50

85:                                               ; preds = %50
  %86 = load i32, i32* %3, align 4
  %87 = icmp ne i32 %86, 1
  br i1 %87, label %88, label %90

88:                                               ; preds = %85
  %89 = call i32 (i8*, ...) @printf(i8* getelementptr inbounds ([6 x i8], [6 x i8]* @.str.2, i64 0, i64 0))
  br label %90

90:                                               ; preds = %88, %85
  %91 = load i32*, i32** %7, align 8
  %92 = bitcast i32* %91 to i8*
  call void @free(i8* %92) #3
  ret i32 0
}

declare dso_local i32 @__isoc99_scanf(i8*, ...) #1

; Function Attrs: nounwind
declare dso_local noalias i8* @malloc(i64) #2

declare dso_local i32 @printf(i8*, ...) #1

; Function Attrs: nounwind
declare dso_local void @free(i8*) #2


!llvm.module.flags = !{!0}
!llvm.ident = !{!1}

!0 = !{i32 1, !"wchar_size", i32 4}
!1 = !{!"clang version 10.0.0-4ubuntu1 "}
